target datalayout = "e-m:e-p270:32:32-p271:32:32-p272:64:64-i64:64-i128:128-f80:128-n8:16:32:64-S128"
target triple = "x86_64-pc-linux-gnu"

%struct._zend_refcounted_h = type { i32, %union.anon.3 }
%union.anon.3 = type { i32 }
%struct._zend_string = type { %struct._zend_refcounted_h, i64, i64, [1 x i8] }

; Function Attrs: nounwind uwtable
define i32 @zend_alter_ini_entry_chars_ex(ptr noundef %0, ptr noundef %1, i64 noundef %2, i32 noundef %3, i32 noundef %4, i32 noundef %5) #0 {
  %7 = alloca ptr, align 8
  %8 = alloca i32, align 4
  %9 = alloca i64, align 8
  %10 = alloca i8, align 1
  %11 = alloca ptr, align 8
  %12 = alloca ptr, align 8
  %13 = alloca i32, align 4
  %14 = alloca i32, align 4
  %15 = alloca ptr, align 8
  %16 = alloca ptr, align 8
  %17 = alloca i64, align 8
  %18 = alloca i8, align 1
  %19 = alloca ptr, align 8
  %20 = alloca ptr, align 8
  %21 = alloca ptr, align 8
  %22 = alloca i64, align 8
  %23 = alloca i32, align 4
  %24 = alloca i32, align 4
  %25 = alloca i32, align 4
  %26 = alloca i32, align 4
  %27 = alloca ptr, align 8
  store ptr %0, ptr %20, align 8
  store ptr %1, ptr %21, align 8
  store i64 %2, ptr %22, align 8
  store i32 %3, ptr %23, align 4
  store i32 %4, ptr %24, align 4
  store i32 %5, ptr %25, align 4
  %28 = load ptr, ptr %21, align 8
  %29 = load i64, ptr %22, align 8
  %30 = load i32, ptr %24, align 4
  %31 = and i32 %30, 60
  %32 = icmp ne i32 %31, 0
  %33 = xor i1 %32, true
  store ptr %28, ptr %16, align 8
  store i64 %29, ptr %17, align 8
  %34 = zext i1 %33 to i8
  store i8 %34, ptr %18, align 1
  %35 = load i64, ptr %17, align 8
  %36 = load i8, ptr %18, align 1
  %37 = trunc i8 %36 to i1
  store i64 %35, ptr %9, align 8
  %38 = zext i1 %37 to i8
  store i8 %38, ptr %10, align 1
  %39 = load i8, ptr %10, align 1
  %40 = trunc i8 %39 to i1
  br i1 %40, label %41, label %49

41:                                               ; preds = %6
  %42 = load i64, ptr %9, align 8
  %43 = add i64 24, %42
  %44 = add i64 %43, 1
  %45 = add i64 %44, 8
  %46 = sub i64 %45, 1
  %47 = and i64 %46, -8
  %48 = call noalias ptr @__zend_malloc(i64 noundef %47) #12
  br label %453

49:                                               ; preds = %6
  %50 = load i64, ptr %9, align 8
  %51 = add i64 24, %50
  %52 = add i64 %51, 1
  %53 = add i64 %52, 8
  %54 = sub i64 %53, 1
  %55 = and i64 %54, -8
  %56 = call i1 @llvm.is.constant.i64(i64 %55)
  br i1 %56, label %57, label %443

57:                                               ; preds = %49
  %58 = load i64, ptr %9, align 8
  %59 = add i64 24, %58
  %60 = add i64 %59, 1
  %61 = add i64 %60, 8
  %62 = sub i64 %61, 1
  %63 = and i64 %62, -8
  %64 = icmp ule i64 %63, 8
  br i1 %64, label %65, label %67

65:                                               ; preds = %57
  %66 = call noalias ptr @_emalloc_8() #13
  br label %441

67:                                               ; preds = %57
  %68 = load i64, ptr %9, align 8
  %69 = add i64 24, %68
  %70 = add i64 %69, 1
  %71 = add i64 %70, 8
  %72 = sub i64 %71, 1
  %73 = and i64 %72, -8
  %74 = icmp ule i64 %73, 16
  br i1 %74, label %75, label %77

75:                                               ; preds = %67
  %76 = call noalias ptr @_emalloc_16() #13
  br label %439

77:                                               ; preds = %67
  %78 = load i64, ptr %9, align 8
  %79 = add i64 24, %78
  %80 = add i64 %79, 1
  %81 = add i64 %80, 8
  %82 = sub i64 %81, 1
  %83 = and i64 %82, -8
  %84 = icmp ule i64 %83, 24
  br i1 %84, label %85, label %87

85:                                               ; preds = %77
  %86 = call noalias ptr @_emalloc_24() #13
  br label %437

87:                                               ; preds = %77
  %88 = load i64, ptr %9, align 8
  %89 = add i64 24, %88
  %90 = add i64 %89, 1
  %91 = add i64 %90, 8
  %92 = sub i64 %91, 1
  %93 = and i64 %92, -8
  %94 = icmp ule i64 %93, 32
  br i1 %94, label %95, label %97

95:                                               ; preds = %87
  %96 = call noalias ptr @_emalloc_32() #13
  br label %435

97:                                               ; preds = %87
  %98 = load i64, ptr %9, align 8
  %99 = add i64 24, %98
  %100 = add i64 %99, 1
  %101 = add i64 %100, 8
  %102 = sub i64 %101, 1
  %103 = and i64 %102, -8
  %104 = icmp ule i64 %103, 40
  br i1 %104, label %105, label %107

105:                                              ; preds = %97
  %106 = call noalias ptr @_emalloc_40() #13
  br label %433

107:                                              ; preds = %97
  %108 = load i64, ptr %9, align 8
  %109 = add i64 24, %108
  %110 = add i64 %109, 1
  %111 = add i64 %110, 8
  %112 = sub i64 %111, 1
  %113 = and i64 %112, -8
  %114 = icmp ule i64 %113, 48
  br i1 %114, label %115, label %117

115:                                              ; preds = %107
  %116 = call noalias ptr @_emalloc_48() #13
  br label %431

117:                                              ; preds = %107
  %118 = load i64, ptr %9, align 8
  %119 = add i64 24, %118
  %120 = add i64 %119, 1
  %121 = add i64 %120, 8
  %122 = sub i64 %121, 1
  %123 = and i64 %122, -8
  %124 = icmp ule i64 %123, 56
  br i1 %124, label %125, label %127

125:                                              ; preds = %117
  %126 = call noalias ptr @_emalloc_56() #13
  br label %429

127:                                              ; preds = %117
  %128 = load i64, ptr %9, align 8
  %129 = add i64 24, %128
  %130 = add i64 %129, 1
  %131 = add i64 %130, 8
  %132 = sub i64 %131, 1
  %133 = and i64 %132, -8
  %134 = icmp ule i64 %133, 64
  br i1 %134, label %135, label %137

135:                                              ; preds = %127
  %136 = call noalias ptr @_emalloc_64() #13
  br label %427

137:                                              ; preds = %127
  %138 = load i64, ptr %9, align 8
  %139 = add i64 24, %138
  %140 = add i64 %139, 1
  %141 = add i64 %140, 8
  %142 = sub i64 %141, 1
  %143 = and i64 %142, -8
  %144 = icmp ule i64 %143, 80
  br i1 %144, label %145, label %147

145:                                              ; preds = %137
  %146 = call noalias ptr @_emalloc_80() #13
  br label %425

147:                                              ; preds = %137
  %148 = load i64, ptr %9, align 8
  %149 = add i64 24, %148
  %150 = add i64 %149, 1
  %151 = add i64 %150, 8
  %152 = sub i64 %151, 1
  %153 = and i64 %152, -8
  %154 = icmp ule i64 %153, 96
  br i1 %154, label %155, label %157

155:                                              ; preds = %147
  %156 = call noalias ptr @_emalloc_96() #13
  br label %423

157:                                              ; preds = %147
  %158 = load i64, ptr %9, align 8
  %159 = add i64 24, %158
  %160 = add i64 %159, 1
  %161 = add i64 %160, 8
  %162 = sub i64 %161, 1
  %163 = and i64 %162, -8
  %164 = icmp ule i64 %163, 112
  br i1 %164, label %165, label %167

165:                                              ; preds = %157
  %166 = call noalias ptr @_emalloc_112() #13
  br label %421

167:                                              ; preds = %157
  %168 = load i64, ptr %9, align 8
  %169 = add i64 24, %168
  %170 = add i64 %169, 1
  %171 = add i64 %170, 8
  %172 = sub i64 %171, 1
  %173 = and i64 %172, -8
  %174 = icmp ule i64 %173, 128
  br i1 %174, label %175, label %177

175:                                              ; preds = %167
  %176 = call noalias ptr @_emalloc_128() #13
  br label %419

177:                                              ; preds = %167
  %178 = load i64, ptr %9, align 8
  %179 = add i64 24, %178
  %180 = add i64 %179, 1
  %181 = add i64 %180, 8
  %182 = sub i64 %181, 1
  %183 = and i64 %182, -8
  %184 = icmp ule i64 %183, 160
  br i1 %184, label %185, label %187

185:                                              ; preds = %177
  %186 = call noalias ptr @_emalloc_160() #13
  br label %417

187:                                              ; preds = %177
  %188 = load i64, ptr %9, align 8
  %189 = add i64 24, %188
  %190 = add i64 %189, 1
  %191 = add i64 %190, 8
  %192 = sub i64 %191, 1
  %193 = and i64 %192, -8
  %194 = icmp ule i64 %193, 192
  br i1 %194, label %195, label %197

195:                                              ; preds = %187
  %196 = call noalias ptr @_emalloc_192() #13
  br label %415

197:                                              ; preds = %187
  %198 = load i64, ptr %9, align 8
  %199 = add i64 24, %198
  %200 = add i64 %199, 1
  %201 = add i64 %200, 8
  %202 = sub i64 %201, 1
  %203 = and i64 %202, -8
  %204 = icmp ule i64 %203, 224
  br i1 %204, label %205, label %207

205:                                              ; preds = %197
  %206 = call noalias ptr @_emalloc_224() #13
  br label %413

207:                                              ; preds = %197
  %208 = load i64, ptr %9, align 8
  %209 = add i64 24, %208
  %210 = add i64 %209, 1
  %211 = add i64 %210, 8
  %212 = sub i64 %211, 1
  %213 = and i64 %212, -8
  %214 = icmp ule i64 %213, 256
  br i1 %214, label %215, label %217

215:                                              ; preds = %207
  %216 = call noalias ptr @_emalloc_256() #13
  br label %411

217:                                              ; preds = %207
  %218 = load i64, ptr %9, align 8
  %219 = add i64 24, %218
  %220 = add i64 %219, 1
  %221 = add i64 %220, 8
  %222 = sub i64 %221, 1
  %223 = and i64 %222, -8
  %224 = icmp ule i64 %223, 320
  br i1 %224, label %225, label %227

225:                                              ; preds = %217
  %226 = call noalias ptr @_emalloc_320() #13
  br label %409

227:                                              ; preds = %217
  %228 = load i64, ptr %9, align 8
  %229 = add i64 24, %228
  %230 = add i64 %229, 1
  %231 = add i64 %230, 8
  %232 = sub i64 %231, 1
  %233 = and i64 %232, -8
  %234 = icmp ule i64 %233, 384
  br i1 %234, label %235, label %237

235:                                              ; preds = %227
  %236 = call noalias ptr @_emalloc_384() #13
  br label %407

237:                                              ; preds = %227
  %238 = load i64, ptr %9, align 8
  %239 = add i64 24, %238
  %240 = add i64 %239, 1
  %241 = add i64 %240, 8
  %242 = sub i64 %241, 1
  %243 = and i64 %242, -8
  %244 = icmp ule i64 %243, 448
  br i1 %244, label %245, label %247

245:                                              ; preds = %237
  %246 = call noalias ptr @_emalloc_448() #13
  br label %405

247:                                              ; preds = %237
  %248 = load i64, ptr %9, align 8
  %249 = add i64 24, %248
  %250 = add i64 %249, 1
  %251 = add i64 %250, 8
  %252 = sub i64 %251, 1
  %253 = and i64 %252, -8
  %254 = icmp ule i64 %253, 512
  br i1 %254, label %255, label %257

255:                                              ; preds = %247
  %256 = call noalias ptr @_emalloc_512() #13
  br label %403

257:                                              ; preds = %247
  %258 = load i64, ptr %9, align 8
  %259 = add i64 24, %258
  %260 = add i64 %259, 1
  %261 = add i64 %260, 8
  %262 = sub i64 %261, 1
  %263 = and i64 %262, -8
  %264 = icmp ule i64 %263, 640
  br i1 %264, label %265, label %267

265:                                              ; preds = %257
  %266 = call noalias ptr @_emalloc_640() #13
  br label %401

267:                                              ; preds = %257
  %268 = load i64, ptr %9, align 8
  %269 = add i64 24, %268
  %270 = add i64 %269, 1
  %271 = add i64 %270, 8
  %272 = sub i64 %271, 1
  %273 = and i64 %272, -8
  %274 = icmp ule i64 %273, 768
  br i1 %274, label %275, label %277

275:                                              ; preds = %267
  %276 = call noalias ptr @_emalloc_768() #13
  br label %399

277:                                              ; preds = %267
  %278 = load i64, ptr %9, align 8
  %279 = add i64 24, %278
  %280 = add i64 %279, 1
  %281 = add i64 %280, 8
  %282 = sub i64 %281, 1
  %283 = and i64 %282, -8
  %284 = icmp ule i64 %283, 896
  br i1 %284, label %285, label %287

285:                                              ; preds = %277
  %286 = call noalias ptr @_emalloc_896() #13
  br label %397

287:                                              ; preds = %277
  %288 = load i64, ptr %9, align 8
  %289 = add i64 24, %288
  %290 = add i64 %289, 1
  %291 = add i64 %290, 8
  %292 = sub i64 %291, 1
  %293 = and i64 %292, -8
  %294 = icmp ule i64 %293, 1024
  br i1 %294, label %295, label %297

295:                                              ; preds = %287
  %296 = call noalias ptr @_emalloc_1024() #13
  br label %395

297:                                              ; preds = %287
  %298 = load i64, ptr %9, align 8
  %299 = add i64 24, %298
  %300 = add i64 %299, 1
  %301 = add i64 %300, 8
  %302 = sub i64 %301, 1
  %303 = and i64 %302, -8
  %304 = icmp ule i64 %303, 1280
  br i1 %304, label %305, label %307

305:                                              ; preds = %297
  %306 = call noalias ptr @_emalloc_1280() #13
  br label %393

307:                                              ; preds = %297
  %308 = load i64, ptr %9, align 8
  %309 = add i64 24, %308
  %310 = add i64 %309, 1
  %311 = add i64 %310, 8
  %312 = sub i64 %311, 1
  %313 = and i64 %312, -8
  %314 = icmp ule i64 %313, 1536
  br i1 %314, label %315, label %317

315:                                              ; preds = %307
  %316 = call noalias ptr @_emalloc_1536() #13
  br label %391

317:                                              ; preds = %307
  %318 = load i64, ptr %9, align 8
  %319 = add i64 24, %318
  %320 = add i64 %319, 1
  %321 = add i64 %320, 8
  %322 = sub i64 %321, 1
  %323 = and i64 %322, -8
  %324 = icmp ule i64 %323, 1792
  br i1 %324, label %325, label %327

325:                                              ; preds = %317
  %326 = call noalias ptr @_emalloc_1792() #13
  br label %389

327:                                              ; preds = %317
  %328 = load i64, ptr %9, align 8
  %329 = add i64 24, %328
  %330 = add i64 %329, 1
  %331 = add i64 %330, 8
  %332 = sub i64 %331, 1
  %333 = and i64 %332, -8
  %334 = icmp ule i64 %333, 2048
  br i1 %334, label %335, label %337

335:                                              ; preds = %327
  %336 = call noalias ptr @_emalloc_2048() #13
  br label %387

337:                                              ; preds = %327
  %338 = load i64, ptr %9, align 8
  %339 = add i64 24, %338
  %340 = add i64 %339, 1
  %341 = add i64 %340, 8
  %342 = sub i64 %341, 1
  %343 = and i64 %342, -8
  %344 = icmp ule i64 %343, 2560
  br i1 %344, label %345, label %347

345:                                              ; preds = %337
  %346 = call noalias ptr @_emalloc_2560() #13
  br label %385

347:                                              ; preds = %337
  %348 = load i64, ptr %9, align 8
  %349 = add i64 24, %348
  %350 = add i64 %349, 1
  %351 = add i64 %350, 8
  %352 = sub i64 %351, 1
  %353 = and i64 %352, -8
  %354 = icmp ule i64 %353, 3072
  br i1 %354, label %355, label %357

355:                                              ; preds = %347
  %356 = call noalias ptr @_emalloc_3072() #13
  br label %383

357:                                              ; preds = %347
  %358 = load i64, ptr %9, align 8
  %359 = add i64 24, %358
  %360 = add i64 %359, 1
  %361 = add i64 %360, 8
  %362 = sub i64 %361, 1
  %363 = and i64 %362, -8
  %364 = icmp ule i64 %363, 2093056
  br i1 %364, label %365, label %373

365:                                              ; preds = %357
  %366 = load i64, ptr %9, align 8
  %367 = add i64 24, %366
  %368 = add i64 %367, 1
  %369 = add i64 %368, 8
  %370 = sub i64 %369, 1
  %371 = and i64 %370, -8
  %372 = call noalias ptr @_emalloc_large(i64 noundef %371) #12
  br label %381

373:                                              ; preds = %357
  %374 = load i64, ptr %9, align 8
  %375 = add i64 24, %374
  %376 = add i64 %375, 1
  %377 = add i64 %376, 8
  %378 = sub i64 %377, 1
  %379 = and i64 %378, -8
  %380 = call noalias ptr @_emalloc_huge(i64 noundef %379) #12
  br label %381

381:                                              ; preds = %373, %365
  %382 = phi ptr [ %372, %365 ], [ %380, %373 ]
  br label %383

383:                                              ; preds = %381, %355
  %384 = phi ptr [ %356, %355 ], [ %382, %381 ]
  br label %385

385:                                              ; preds = %383, %345
  %386 = phi ptr [ %346, %345 ], [ %384, %383 ]
  br label %387

387:                                              ; preds = %385, %335
  %388 = phi ptr [ %336, %335 ], [ %386, %385 ]
  br label %389

389:                                              ; preds = %387, %325
  %390 = phi ptr [ %326, %325 ], [ %388, %387 ]
  br label %391

391:                                              ; preds = %389, %315
  %392 = phi ptr [ %316, %315 ], [ %390, %389 ]
  br label %393

393:                                              ; preds = %391, %305
  %394 = phi ptr [ %306, %305 ], [ %392, %391 ]
  br label %395

395:                                              ; preds = %393, %295
  %396 = phi ptr [ %296, %295 ], [ %394, %393 ]
  br label %397

397:                                              ; preds = %395, %285
  %398 = phi ptr [ %286, %285 ], [ %396, %395 ]
  br label %399

399:                                              ; preds = %397, %275
  %400 = phi ptr [ %276, %275 ], [ %398, %397 ]
  br label %401

401:                                              ; preds = %399, %265
  %402 = phi ptr [ %266, %265 ], [ %400, %399 ]
  br label %403

403:                                              ; preds = %401, %255
  %404 = phi ptr [ %256, %255 ], [ %402, %401 ]
  br label %405

405:                                              ; preds = %403, %245
  %406 = phi ptr [ %246, %245 ], [ %404, %403 ]
  br label %407

407:                                              ; preds = %405, %235
  %408 = phi ptr [ %236, %235 ], [ %406, %405 ]
  br label %409

409:                                              ; preds = %407, %225
  %410 = phi ptr [ %226, %225 ], [ %408, %407 ]
  br label %411

411:                                              ; preds = %409, %215
  %412 = phi ptr [ %216, %215 ], [ %410, %409 ]
  br label %413

413:                                              ; preds = %411, %205
  %414 = phi ptr [ %206, %205 ], [ %412, %411 ]
  br label %415

415:                                              ; preds = %413, %195
  %416 = phi ptr [ %196, %195 ], [ %414, %413 ]
  br label %417

417:                                              ; preds = %415, %185
  %418 = phi ptr [ %186, %185 ], [ %416, %415 ]
  br label %419

419:                                              ; preds = %417, %175
  %420 = phi ptr [ %176, %175 ], [ %418, %417 ]
  br label %421

421:                                              ; preds = %419, %165
  %422 = phi ptr [ %166, %165 ], [ %420, %419 ]
  br label %423

423:                                              ; preds = %421, %155
  %424 = phi ptr [ %156, %155 ], [ %422, %421 ]
  br label %425

425:                                              ; preds = %423, %145
  %426 = phi ptr [ %146, %145 ], [ %424, %423 ]
  br label %427

427:                                              ; preds = %425, %135
  %428 = phi ptr [ %136, %135 ], [ %426, %425 ]
  br label %429

429:                                              ; preds = %427, %125
  %430 = phi ptr [ %126, %125 ], [ %428, %427 ]
  br label %431

431:                                              ; preds = %429, %115
  %432 = phi ptr [ %116, %115 ], [ %430, %429 ]
  br label %433

433:                                              ; preds = %431, %105
  %434 = phi ptr [ %106, %105 ], [ %432, %431 ]
  br label %435

435:                                              ; preds = %433, %95
  %436 = phi ptr [ %96, %95 ], [ %434, %433 ]
  br label %437

437:                                              ; preds = %435, %85
  %438 = phi ptr [ %86, %85 ], [ %436, %435 ]
  br label %439

439:                                              ; preds = %437, %75
  %440 = phi ptr [ %76, %75 ], [ %438, %437 ]
  br label %441

441:                                              ; preds = %439, %65
  %442 = phi ptr [ %66, %65 ], [ %440, %439 ]
  br label %451

443:                                              ; preds = %49
  %444 = load i64, ptr %9, align 8
  %445 = add i64 24, %444
  %446 = add i64 %445, 1
  %447 = add i64 %446, 8
  %448 = sub i64 %447, 1
  %449 = and i64 %448, -8
  %450 = call noalias ptr @_emalloc(i64 noundef %449) #12
  br label %451

451:                                              ; preds = %443, %441
  %452 = phi ptr [ %442, %441 ], [ %450, %443 ]
  br label %453

453:                                              ; preds = %451, %41
  %454 = phi ptr [ %48, %41 ], [ %452, %451 ]
  store ptr %454, ptr %11, align 8
  %455 = load ptr, ptr %11, align 8
  store ptr %455, ptr %7, align 8
  store i32 1, ptr %8, align 4
  %456 = load i32, ptr %8, align 4
  %457 = load ptr, ptr %7, align 8
  store i32 %456, ptr %457, align 4
  %458 = load i8, ptr %10, align 1
  %459 = trunc i8 %458 to i1
  %460 = select i1 %459, i32 128, i32 0
  %461 = or i32 22, %460
  %462 = load ptr, ptr %11, align 8
  %463 = getelementptr inbounds %struct._zend_refcounted_h, ptr %462, i32 0, i32 1
  store i32 %461, ptr %463, align 4
  %464 = load ptr, ptr %11, align 8
  %465 = getelementptr inbounds %struct._zend_string, ptr %464, i32 0, i32 1
  store i64 0, ptr %465, align 8
  %466 = load i64, ptr %9, align 8
  %467 = load ptr, ptr %11, align 8
  %468 = getelementptr inbounds %struct._zend_string, ptr %467, i32 0, i32 2
  store i64 %466, ptr %468, align 8
  %469 = load ptr, ptr %11, align 8
  store ptr %469, ptr %19, align 8
  %470 = load ptr, ptr %19, align 8
  %471 = getelementptr inbounds %struct._zend_string, ptr %470, i32 0, i32 3
  %472 = load ptr, ptr %16, align 8
  %473 = load i64, ptr %17, align 8
  call void @llvm.memcpy.p0.p0.i64(ptr align 8 %471, ptr align 1 %472, i64 %473, i1 false)
  %474 = load ptr, ptr %19, align 8
  %475 = getelementptr inbounds %struct._zend_string, ptr %474, i32 0, i32 3
  %476 = load i64, ptr %17, align 8
  %477 = getelementptr inbounds [1 x i8], ptr %475, i64 0, i64 %476
  store i8 0, ptr %477, align 1
  %478 = load ptr, ptr %19, align 8
  store ptr %478, ptr %27, align 8
  %479 = load ptr, ptr %20, align 8
  %480 = load ptr, ptr %27, align 8
  %481 = load i32, ptr %23, align 4
  %482 = load i32, ptr %24, align 4
  %483 = load i32, ptr %25, align 4
  %484 = icmp ne i32 %483, 0
  %485 = call i32 @zend_alter_ini_entry_ex(ptr noundef %479, ptr noundef %480, i32 noundef %481, i32 noundef %482, i1 noundef zeroext %484)
  store i32 %485, ptr %26, align 4
  %486 = load ptr, ptr %27, align 8
  store ptr %486, ptr %15, align 8
  %487 = load ptr, ptr %15, align 8
  %488 = getelementptr inbounds %struct._zend_refcounted_h, ptr %487, i32 0, i32 1
  %489 = load i32, ptr %488, align 4
  store i32 %489, ptr %13, align 4
  %490 = load i32, ptr %13, align 4
  %491 = and i32 %490, 1008
  %492 = and i32 %491, 64
  %493 = icmp ne i32 %492, 0
  br i1 %493, label %517, label %494

494:                                              ; preds = %453
  %495 = load ptr, ptr %15, align 8
  store ptr %495, ptr %12, align 8
  %496 = load ptr, ptr %12, align 8
  %497 = load i32, ptr %496, align 4
  %498 = icmp ugt i32 %497, 0
  call void @llvm.assume(i1 %498)
  %499 = load ptr, ptr %12, align 8
  %500 = load i32, ptr %499, align 4
  %501 = add i32 %500, -1
  store i32 %501, ptr %499, align 4
  %502 = icmp eq i32 %501, 0
  br i1 %502, label %503, label %516

503:                                              ; preds = %494
  %504 = load ptr, ptr %15, align 8
  %505 = getelementptr inbounds %struct._zend_refcounted_h, ptr %504, i32 0, i32 1
  %506 = load i32, ptr %505, align 4
  store i32 %506, ptr %14, align 4
  %507 = load i32, ptr %14, align 4
  %508 = and i32 %507, 1008
  %509 = and i32 %508, 128
  %510 = icmp ne i32 %509, 0
  br i1 %510, label %511, label %513

511:                                              ; preds = %503
  %512 = load ptr, ptr %15, align 8
  call void @free(ptr noundef %512) #13
  br label %515

513:                                              ; preds = %503
  %514 = load ptr, ptr %15, align 8
  call void @_efree(ptr noundef %514) #13
  br label %515

515:                                              ; preds = %513, %511
  br label %516

516:                                              ; preds = %515, %494
  br label %517

517:                                              ; preds = %516, %453
  %518 = load i32, ptr %26, align 4
  ret i32 %518
}