; Function Attrs: nounwind uwtable
define noundef i32 @zend_alter_ini_entry_chars_ex(ptr noundef %0, ptr nocapture noundef readonly %1, i64 noundef %2, i32 noundef %3, i32 noundef %4, i32 noundef %5) local_unnamed_addr #0 {
  %7 = and i32 %4, 60
  %.not = icmp eq i32 %7, 0
  %8 = and i64 %2, -8
  %9 = add i64 %8, 32
  br i1 %.not, label %10, label %12

10:                                               ; preds = %6
  %11 = tail call noalias ptr @__zend_malloc(i64 noundef %9) #19
  br label %14

12:                                               ; preds = %6
  %13 = tail call noalias ptr @_emalloc(i64 noundef %9) #19
  br label %14

14:                                               ; preds = %12, %10
  %15 = phi i32 [ 150, %10 ], [ 22, %12 ]
  %16 = phi ptr [ %11, %10 ], [ %13, %12 ]
  store i32 1, ptr %16, align 4
  %17 = getelementptr inbounds i8, ptr %16, i64 4
  store i32 %15, ptr %17, align 4
  %18 = getelementptr inbounds i8, ptr %16, i64 8
  store i64 0, ptr %18, align 8
  %19 = getelementptr inbounds i8, ptr %16, i64 16
  store i64 %2, ptr %19, align 8
  %20 = getelementptr inbounds i8, ptr %16, i64 24
  tail call void @llvm.memcpy.p0.p0.i64(ptr nonnull align 8 %20, ptr align 1 %1, i64 %2, i1 false)
  %21 = getelementptr inbounds [1 x i8], ptr %20, i64 0, i64 %2
  store i8 0, ptr %21, align 1
  %22 = icmp ne i32 %5, 0
  %23 = tail call i32 @zend_alter_ini_entry_ex(ptr noundef %0, ptr noundef nonnull %16, i32 noundef %3, i32 noundef %4, i1 noundef zeroext %22), !range !4
  %24 = load i32, ptr %17, align 4
  %25 = and i32 %24, 64
  %.not72 = icmp eq i32 %25, 0
  br i1 %.not72, label %26, label %35

26:                                               ; preds = %14
  %27 = load i32, ptr %16, align 4
  %28 = icmp ne i32 %27, 0
  tail call void @llvm.assume(i1 %28)
  %29 = add i32 %27, -1
  store i32 %29, ptr %16, align 4
  %30 = icmp eq i32 %29, 0
  br i1 %30, label %31, label %35

31:                                               ; preds = %26
  %32 = and i32 %24, 128
  %.not73 = icmp eq i32 %32, 0
  br i1 %.not73, label %34, label %33

33:                                               ; preds = %31
  tail call void @free(ptr noundef nonnull %16) #20
  br label %35

34:                                               ; preds = %31
  tail call void @_efree(ptr noundef nonnull %16) #20
  br label %35

35:                                               ; preds = %26, %34, %33, %14
  ret i32 %23
}